; Function Attrs: mustprogress nounwind uwtable
define dso_local noundef nonnull align 8 dereferenceable(440) ptr @_ZN4llvm7remarks12RemarkLinker4keepESt10unique_ptrINS0_6RemarkESt14default_deleteIS3_EE(ptr noundef nonnull align 8 dereferenceable(217) %0, ptr noundef %1) local_unnamed_addr #0 align 2 {
  %3 = load ptr, ptr %1, align 8
  tail call void @_ZN4llvm7remarks11StringTable11internalizeERNS0_6RemarkE(ptr noundef nonnull align 8 dereferenceable(128) %0, ptr noundef nonnull align 8 dereferenceable(440) %3) #17
  %4 = getelementptr inbounds nuw i8, ptr %0, i64 128
  %5 = tail call { ptr, i8 } @_ZNSt8_Rb_treeISt10unique_ptrIN4llvm7remarks6RemarkESt14default_deleteIS3_EES6_St9_IdentityIS6_ENS2_12RemarkLinker16RemarkPtrCompareESaIS6_EE16_M_insert_uniqueIS6_EESt4pairISt17_Rb_tree_iteratorIS6_EbEOT_(ptr noundef nonnull align 8 dereferenceable(48) %4, ptr noundef nonnull align 8 dereferenceable(8) %1)
  %.fca.0.extract = extractvalue { ptr, i8 } %5, 0
  %6 = getelementptr inbounds nuw i8, ptr %.fca.0.extract, i64 32
  %7 = load ptr, ptr %6, align 8
  ret ptr %7
}